target datalayout = "e-m:e-p270:32:32-p271:32:32-p272:64:64-i64:64-i128:128-f80:128-n8:16:32:64-S128"
target triple = "x86_64-pc-linux-gnu"

%"struct.boost::detail::function::function_buffer_members::type_t" = type { ptr, i8, i8 }
%"class.std::type_info" = type { ptr, ptr }

@_ZTIN12_GLOBAL__N_115cpp_main_callerE = internal constant { ptr, ptr } { ptr getelementptr inbounds (ptr, ptr @_ZTVN10__cxxabiv117__class_type_infoE, i64 2), ptr @_ZTSN12_GLOBAL__N_115cpp_main_callerE }, align 8

; Function Attrs: mustprogress nounwind uwtable
define linkonce_odr hidden noundef ptr @_ZNKSt9type_info4nameEv(ptr noundef nonnull align 8 dereferenceable(16) %0) #7 comdat align 2 {
  %2 = alloca ptr, align 8
  store ptr %0, ptr %2, align 8, !tbaa !3
  %3 = load ptr, ptr %2, align 8
  %4 = getelementptr inbounds nuw %"class.std::type_info", ptr %3, i32 0, i32 1
  %5 = load ptr, ptr %4, align 8, !tbaa !46
  %6 = getelementptr inbounds i8, ptr %5, i64 0
  %7 = load i8, ptr %6, align 1, !tbaa !40
  %8 = sext i8 %7 to i32
  %9 = icmp eq i32 %8, 42
  br i1 %9, label %10, label %14

10:                                               ; preds = %1
  %11 = getelementptr inbounds nuw %"class.std::type_info", ptr %3, i32 0, i32 1
  %12 = load ptr, ptr %11, align 8, !tbaa !46
  %13 = getelementptr inbounds i8, ptr %12, i64 1
  br label %17

14:                                               ; preds = %1
  %15 = getelementptr inbounds nuw %"class.std::type_info", ptr %3, i32 0, i32 1
  %16 = load ptr, ptr %15, align 8, !tbaa !46
  br label %17

17:                                               ; preds = %14, %10
  %18 = phi ptr [ %13, %10 ], [ %16, %14 ]
  ret ptr %18
}

; Function Attrs: inlinehint mustprogress nounwind uwtable
define linkonce_odr hidden noundef zeroext i1 @_ZNKSt9type_infoeqERKS_(ptr noundef nonnull align 8 dereferenceable(16) %0, ptr noundef nonnull align 8 dereferenceable(16) %1) #8 comdat align 2 {
  %3 = alloca i1, align 1
  %4 = alloca ptr, align 8
  %5 = alloca ptr, align 8
  store ptr %0, ptr %4, align 8, !tbaa !3
  store ptr %1, ptr %5, align 8, !tbaa !3
  %6 = load ptr, ptr %4, align 8
  %7 = getelementptr inbounds nuw %"class.std::type_info", ptr %6, i32 0, i32 1
  %8 = load ptr, ptr %7, align 8, !tbaa !46
  %9 = load ptr, ptr %5, align 8, !tbaa !3
  %10 = getelementptr inbounds nuw %"class.std::type_info", ptr %9, i32 0, i32 1
  %11 = load ptr, ptr %10, align 8, !tbaa !46
  %12 = icmp eq ptr %8, %11
  br i1 %12, label %13, label %14

13:                                               ; preds = %2
  store i1 true, ptr %3, align 1
  br label %30

14:                                               ; preds = %2
  %15 = getelementptr inbounds nuw %"class.std::type_info", ptr %6, i32 0, i32 1
  %16 = load ptr, ptr %15, align 8, !tbaa !46
  %17 = getelementptr inbounds i8, ptr %16, i64 0
  %18 = load i8, ptr %17, align 1, !tbaa !40
  %19 = sext i8 %18 to i32
  %20 = icmp ne i32 %19, 42
  br i1 %20, label %21, label %28

21:                                               ; preds = %14
  %22 = getelementptr inbounds nuw %"class.std::type_info", ptr %6, i32 0, i32 1
  %23 = load ptr, ptr %22, align 8, !tbaa !46
  %24 = load ptr, ptr %5, align 8, !tbaa !3
  %25 = call noundef ptr @_ZNKSt9type_info4nameEv(ptr noundef nonnull align 8 dereferenceable(16) %24) #3
  %26 = call i32 @strcmp(ptr noundef %23, ptr noundef %25) #3
  %27 = icmp eq i32 %26, 0
  br label %28

28:                                               ; preds = %21, %14
  %29 = phi i1 [ false, %14 ], [ %27, %21 ]
  store i1 %29, ptr %3, align 1
  br label %30

30:                                               ; preds = %28, %13
  %31 = load i1, ptr %3, align 1
  ret i1 %31
}

; Function Attrs: inlinehint mustprogress nounwind uwtable
define internal void @_ZN5boost6detail8function22functor_manager_commonIN12_GLOBAL__N_115cpp_main_callerEE12manage_smallERKNS1_15function_bufferERS6_NS1_30functor_manager_operation_typeE(ptr noundef nonnull align 8 dereferenceable(24) %0, ptr noundef nonnull align 8 dereferenceable(24) %1, i32 noundef %2) #8 align 2 {
  %4 = alloca ptr, align 8
  %5 = alloca ptr, align 8
  %6 = alloca i32, align 4
  %7 = alloca ptr, align 8
  %8 = alloca ptr, align 8
  %9 = alloca ptr, align 8
  store ptr %0, ptr %4, align 8, !tbaa !3
  store ptr %1, ptr %5, align 8, !tbaa !3
  store i32 %2, ptr %6, align 4, !tbaa !44
  %10 = load i32, ptr %6, align 4, !tbaa !44
  %11 = icmp eq i32 %10, 0
  br i1 %11, label %12, label %18

12:                                               ; preds = %3
  call void @llvm.lifetime.start.p0(i64 8, ptr %7) #3
  %13 = load ptr, ptr %4, align 8, !tbaa !3
  %14 = getelementptr inbounds [24 x i8], ptr %13, i64 0, i64 0
  store ptr %14, ptr %7, align 8, !tbaa !3
  %15 = load ptr, ptr %5, align 8, !tbaa !3
  %16 = getelementptr inbounds [24 x i8], ptr %15, i64 0, i64 0
  %17 = load ptr, ptr %7, align 8, !tbaa !3
  call void @llvm.memcpy.p0.p0.i64(ptr align 8 %16, ptr align 8 %17, i64 24, i1 false), !tbaa.struct !23
  call void @llvm.lifetime.end.p0(i64 8, ptr %7) #3
  br label %58

18:                                               ; preds = %3
  %19 = load i32, ptr %6, align 4, !tbaa !44
  %20 = icmp eq i32 %19, 1
  br i1 %20, label %21, label %27

21:                                               ; preds = %18
  call void @llvm.lifetime.start.p0(i64 8, ptr %8) #3
  %22 = load ptr, ptr %4, align 8, !tbaa !3
  %23 = getelementptr inbounds [24 x i8], ptr %22, i64 0, i64 0
  store ptr %23, ptr %8, align 8, !tbaa !3
  %24 = load ptr, ptr %5, align 8, !tbaa !3
  %25 = getelementptr inbounds [24 x i8], ptr %24, i64 0, i64 0
  %26 = load ptr, ptr %8, align 8, !tbaa !3
  call void @llvm.memcpy.p0.p0.i64(ptr align 8 %25, ptr align 8 %26, i64 24, i1 false), !tbaa.struct !23
  call void @llvm.lifetime.end.p0(i64 8, ptr %8) #3
  br label %57

27:                                               ; preds = %18
  %28 = load i32, ptr %6, align 4, !tbaa !44
  %29 = icmp eq i32 %28, 2
  br i1 %29, label %30, label %33

30:                                               ; preds = %27
  call void @llvm.lifetime.start.p0(i64 8, ptr %9) #3
  %31 = load ptr, ptr %5, align 8, !tbaa !3
  %32 = getelementptr inbounds [24 x i8], ptr %31, i64 0, i64 0
  store ptr %32, ptr %9, align 8, !tbaa !3
  call void @llvm.lifetime.end.p0(i64 8, ptr %9) #3
  br label %56

33:                                               ; preds = %27
  %34 = load i32, ptr %6, align 4, !tbaa !44
  %35 = icmp eq i32 %34, 3
  br i1 %35, label %36, label %48

36:                                               ; preds = %33
  %37 = load ptr, ptr %5, align 8, !tbaa !3
  %38 = getelementptr inbounds nuw %"struct.boost::detail::function::function_buffer_members::type_t", ptr %37, i32 0, i32 0
  %39 = load ptr, ptr %38, align 8, !tbaa !40
  %40 = call noundef zeroext i1 @_ZNKSt9type_infoeqERKS_(ptr noundef nonnull align 8 dereferenceable(16) %39, ptr noundef nonnull align 8 dereferenceable(16) @_ZTIN12_GLOBAL__N_115cpp_main_callerE) #3
  br i1 %40, label %41, label %45

41:                                               ; preds = %36
  %42 = load ptr, ptr %4, align 8, !tbaa !3
  %43 = getelementptr inbounds [24 x i8], ptr %42, i64 0, i64 0
  %44 = load ptr, ptr %5, align 8, !tbaa !3
  store ptr %43, ptr %44, align 8, !tbaa !40
  br label %47

45:                                               ; preds = %36
  %46 = load ptr, ptr %5, align 8, !tbaa !3
  store ptr null, ptr %46, align 8, !tbaa !40
  br label %47

47:                                               ; preds = %45, %41
  br label %55

48:                                               ; preds = %33
  %49 = load ptr, ptr %5, align 8, !tbaa !3
  %50 = getelementptr inbounds nuw %"struct.boost::detail::function::function_buffer_members::type_t", ptr %49, i32 0, i32 0
  store ptr @_ZTIN12_GLOBAL__N_115cpp_main_callerE, ptr %50, align 8, !tbaa !40
  %51 = load ptr, ptr %5, align 8, !tbaa !3
  %52 = getelementptr inbounds nuw %"struct.boost::detail::function::function_buffer_members::type_t", ptr %51, i32 0, i32 1
  store i8 0, ptr %52, align 8, !tbaa !40
  %53 = load ptr, ptr %5, align 8, !tbaa !3
  %54 = getelementptr inbounds nuw %"struct.boost::detail::function::function_buffer_members::type_t", ptr %53, i32 0, i32 2
  store i8 0, ptr %54, align 1, !tbaa !40
  br label %55

55:                                               ; preds = %48, %47
  br label %56

56:                                               ; preds = %55, %30
  br label %57

57:                                               ; preds = %56, %21
  br label %58

58:                                               ; preds = %57, %12
  ret void
}

; Function Attrs: inlinehint mustprogress uwtable
define internal void @_ZN5boost6detail8function15functor_managerIN12_GLOBAL__N_115cpp_main_callerEE7managerERKNS1_15function_bufferERS6_NS1_30functor_manager_operation_typeESt17integral_constantIbLb1EE(ptr noundef nonnull align 8 dereferenceable(24) %0, ptr noundef nonnull align 8 dereferenceable(24) %1, i32 noundef %2) #6 align 2 {
  %4 = alloca ptr, align 8
  %5 = alloca ptr, align 8
  %6 = alloca i32, align 4
  store ptr %0, ptr %4, align 8, !tbaa !3
  store ptr %1, ptr %5, align 8, !tbaa !3
  store i32 %2, ptr %6, align 4, !tbaa !44
  %7 = load ptr, ptr %4, align 8, !tbaa !3
  %8 = load ptr, ptr %5, align 8, !tbaa !3
  %9 = load i32, ptr %6, align 4, !tbaa !44
  call void @_ZN5boost6detail8function22functor_manager_commonIN12_GLOBAL__N_115cpp_main_callerEE12manage_smallERKNS1_15function_bufferERS6_NS1_30functor_manager_operation_typeE(ptr noundef nonnull align 8 dereferenceable(24) %7, ptr noundef nonnull align 8 dereferenceable(24) %8, i32 noundef %9)
  ret void
}

; Function Attrs: inlinehint mustprogress uwtable
define internal void @_ZN5boost6detail8function15functor_managerIN12_GLOBAL__N_115cpp_main_callerEE7managerERKNS1_15function_bufferERS6_NS1_30functor_manager_operation_typeENS1_16function_obj_tagE(ptr noundef nonnull align 8 dereferenceable(24) %0, ptr noundef nonnull align 8 dereferenceable(24) %1, i32 noundef %2) #6 align 2 {
  %4 = alloca ptr, align 8
  %5 = alloca ptr, align 8
  %6 = alloca i32, align 4
  store ptr %0, ptr %4, align 8, !tbaa !3
  store ptr %1, ptr %5, align 8, !tbaa !3
  store i32 %2, ptr %6, align 4, !tbaa !44
  %7 = load ptr, ptr %4, align 8, !tbaa !3
  %8 = load ptr, ptr %5, align 8, !tbaa !3
  %9 = load i32, ptr %6, align 4, !tbaa !44
  call void @_ZN5boost6detail8function15functor_managerIN12_GLOBAL__N_115cpp_main_callerEE7managerERKNS1_15function_bufferERS6_NS1_30functor_manager_operation_typeESt17integral_constantIbLb1EE(ptr noundef nonnull align 8 dereferenceable(24) %7, ptr noundef nonnull align 8 dereferenceable(24) %8, i32 noundef %9)
  ret void
}

; Function Attrs: inlinehint mustprogress uwtable
define internal void @_ZN5boost6detail8function15functor_managerIN12_GLOBAL__N_115cpp_main_callerEE6manageERKNS1_15function_bufferERS6_NS1_30functor_manager_operation_typeE(ptr noundef nonnull align 8 dereferenceable(24) %0, ptr noundef nonnull align 8 dereferenceable(24) %1, i32 noundef %2) #6 align 2 {
  %4 = alloca ptr, align 8
  %5 = alloca ptr, align 8
  %6 = alloca i32, align 4
  store ptr %0, ptr %4, align 8, !tbaa !3
  store ptr %1, ptr %5, align 8, !tbaa !3
  store i32 %2, ptr %6, align 4, !tbaa !44
  %7 = load i32, ptr %6, align 4, !tbaa !44
  %8 = icmp eq i32 %7, 4
  br i1 %8, label %9, label %16

9:                                                ; preds = %3
  %10 = load ptr, ptr %5, align 8, !tbaa !3
  %11 = getelementptr inbounds nuw %"struct.boost::detail::function::function_buffer_members::type_t", ptr %10, i32 0, i32 0
  store ptr @_ZTIN12_GLOBAL__N_115cpp_main_callerE, ptr %11, align 8, !tbaa !40
  %12 = load ptr, ptr %5, align 8, !tbaa !3
  %13 = getelementptr inbounds nuw %"struct.boost::detail::function::function_buffer_members::type_t", ptr %12, i32 0, i32 1
  store i8 0, ptr %13, align 8, !tbaa !40
  %14 = load ptr, ptr %5, align 8, !tbaa !3
  %15 = getelementptr inbounds nuw %"struct.boost::detail::function::function_buffer_members::type_t", ptr %14, i32 0, i32 2
  store i8 0, ptr %15, align 1, !tbaa !40
  br label %20

16:                                               ; preds = %3
  %17 = load ptr, ptr %4, align 8, !tbaa !3
  %18 = load ptr, ptr %5, align 8, !tbaa !3
  %19 = load i32, ptr %6, align 4, !tbaa !44
  call void @_ZN5boost6detail8function15functor_managerIN12_GLOBAL__N_115cpp_main_callerEE7managerERKNS1_15function_bufferERS6_NS1_30functor_manager_operation_typeENS1_16function_obj_tagE(ptr noundef nonnull align 8 dereferenceable(24) %17, ptr noundef nonnull align 8 dereferenceable(24) %18, i32 noundef %19)
  br label %20

20:                                               ; preds = %16, %9
  ret void
}