; Function Attrs: inlinehint mustprogress nofree nounwind willreturn memory(read, argmem: readwrite, inaccessiblemem: none) uwtable
define internal void @_ZN5boost6detail8function15functor_managerIN12_GLOBAL__N_115cpp_main_callerEE6manageERKNS1_15function_bufferERS6_NS1_30functor_manager_operation_typeE(ptr noundef nonnull align 8 dereferenceable(24) %0, ptr nocapture noundef nonnull align 8 dereferenceable(24) %1, i32 noundef %2) #14 align 2 {
  switch i32 %2, label %18 [
    i32 4, label %4
    i32 0, label %7
    i32 1, label %8
    i32 2, label %_ZN5boost6detail8function15functor_managerIN12_GLOBAL__N_115cpp_main_callerEE7managerERKNS1_15function_bufferERS6_NS1_30functor_manager_operation_typeENS1_16function_obj_tagE.exit
    i32 3, label %9
  ]

4:                                                ; preds = %3
  store ptr @_ZTIN12_GLOBAL__N_115cpp_main_callerE, ptr %1, align 8, !tbaa !3
  %5 = getelementptr inbounds nuw i8, ptr %1, i64 8
  store i8 0, ptr %5, align 8, !tbaa !3
  %6 = getelementptr inbounds nuw i8, ptr %1, i64 9
  store i8 0, ptr %6, align 1, !tbaa !3
  br label %_ZN5boost6detail8function15functor_managerIN12_GLOBAL__N_115cpp_main_callerEE7managerERKNS1_15function_bufferERS6_NS1_30functor_manager_operation_typeENS1_16function_obj_tagE.exit

7:                                                ; preds = %3
  tail call void @llvm.memcpy.p0.p0.i64(ptr noundef nonnull align 8 dereferenceable(24) %1, ptr noundef nonnull align 8 dereferenceable(24) %0, i64 24, i1 false), !tbaa.struct !55
  br label %_ZN5boost6detail8function15functor_managerIN12_GLOBAL__N_115cpp_main_callerEE7managerERKNS1_15function_bufferERS6_NS1_30functor_manager_operation_typeENS1_16function_obj_tagE.exit

8:                                                ; preds = %3
  tail call void @llvm.memcpy.p0.p0.i64(ptr noundef nonnull align 8 dereferenceable(24) %1, ptr noundef nonnull align 8 dereferenceable(24) %0, i64 24, i1 false), !tbaa.struct !55
  br label %_ZN5boost6detail8function15functor_managerIN12_GLOBAL__N_115cpp_main_callerEE7managerERKNS1_15function_bufferERS6_NS1_30functor_manager_operation_typeENS1_16function_obj_tagE.exit

9:                                                ; preds = %3
  %10 = load ptr, ptr %1, align 8, !tbaa !3
  %11 = getelementptr inbounds nuw i8, ptr %10, i64 8
  %12 = load ptr, ptr %11, align 8, !tbaa !58
  %13 = icmp eq ptr %12, @_ZTSN12_GLOBAL__N_115cpp_main_callerE
  br i1 %13, label %_ZNKSt9type_infoeqERKS_.exit.thread.i.i.i, label %14

14:                                               ; preds = %9
  %15 = load i8, ptr %12, align 1, !tbaa !3
  %.not.i.i.i.i = icmp eq i8 %15, 42
  br i1 %.not.i.i.i.i, label %_ZNKSt9type_infoeqERKS_.exit.thread18.i.i.i, label %_ZNKSt9type_infoeqERKS_.exit.i.i.i

_ZNKSt9type_infoeqERKS_.exit.i.i.i:               ; preds = %14
  %16 = tail call i32 @strcmp(ptr noundef nonnull dereferenceable(1) %12, ptr noundef nonnull dereferenceable(34) @_ZTSN12_GLOBAL__N_115cpp_main_callerE) #20
  %17 = icmp eq i32 %16, 0
  br i1 %17, label %_ZNKSt9type_infoeqERKS_.exit.thread.i.i.i, label %_ZNKSt9type_infoeqERKS_.exit.thread18.i.i.i

_ZNKSt9type_infoeqERKS_.exit.thread.i.i.i:        ; preds = %_ZNKSt9type_infoeqERKS_.exit.i.i.i, %9
  store ptr %0, ptr %1, align 8, !tbaa !3
  br label %_ZN5boost6detail8function15functor_managerIN12_GLOBAL__N_115cpp_main_callerEE7managerERKNS1_15function_bufferERS6_NS1_30functor_manager_operation_typeENS1_16function_obj_tagE.exit

_ZNKSt9type_infoeqERKS_.exit.thread18.i.i.i:      ; preds = %_ZNKSt9type_infoeqERKS_.exit.i.i.i, %14
  store ptr null, ptr %1, align 8, !tbaa !3
  br label %_ZN5boost6detail8function15functor_managerIN12_GLOBAL__N_115cpp_main_callerEE7managerERKNS1_15function_bufferERS6_NS1_30functor_manager_operation_typeENS1_16function_obj_tagE.exit

18:                                               ; preds = %3
  store ptr @_ZTIN12_GLOBAL__N_115cpp_main_callerE, ptr %1, align 8, !tbaa !3
  %19 = getelementptr inbounds nuw i8, ptr %1, i64 8
  store i8 0, ptr %19, align 8, !tbaa !3
  %20 = getelementptr inbounds nuw i8, ptr %1, i64 9
  store i8 0, ptr %20, align 1, !tbaa !3
  br label %_ZN5boost6detail8function15functor_managerIN12_GLOBAL__N_115cpp_main_callerEE7managerERKNS1_15function_bufferERS6_NS1_30functor_manager_operation_typeENS1_16function_obj_tagE.exit

_ZN5boost6detail8function15functor_managerIN12_GLOBAL__N_115cpp_main_callerEE7managerERKNS1_15function_bufferERS6_NS1_30functor_manager_operation_typeENS1_16function_obj_tagE.exit: ; preds = %3, %18, %_ZNKSt9type_infoeqERKS_.exit.thread18.i.i.i, %_ZNKSt9type_infoeqERKS_.exit.thread.i.i.i, %8, %7, %4
  ret void
}